; Function Attrs: mustprogress nofree norecurse nosync nounwind willreturn memory(argmem: readwrite) uwtable
define dso_local void @_ZN11btRigidBody19integrateVelocitiesEf(ptr nocapture noundef nonnull align 8 dereferenceable(744) %this, float noundef %step) local_unnamed_addr #6 align 2 {
entry:
  %m_collisionFlags.i = getelementptr inbounds i8, ptr %this, i64 224
  %0 = load i32, ptr %m_collisionFlags.i, align 8
  %and.i = and i32 %0, 3
  %cmp.i.not = icmp eq i32 %and.i, 0
  br i1 %cmp.i.not, label %if.end, label %if.end20

if.end:                                           ; preds = %entry
  %m_totalForce = getelementptr inbounds i8, ptr %this, i64 520
  %m_inverseMass = getelementptr inbounds i8, ptr %this, i64 452
  %1 = load float, ptr %m_inverseMass, align 4
  %mul = fmul float %1, %step
  %arrayidx7.i = getelementptr inbounds i8, ptr %this, i64 528
  %2 = load float, ptr %arrayidx7.i, align 8
  %mul8.i = fmul float %mul, %2
  %m_linearVelocity = getelementptr inbounds i8, ptr %this, i64 420
  %3 = load <2 x float>, ptr %m_totalForce, align 8
  %4 = insertelement <2 x float> poison, float %mul, i64 0
  %5 = shufflevector <2 x float> %4, <2 x float> poison, <2 x i32> zeroinitializer
  %6 = fmul <2 x float> %3, %5
  %7 = load <2 x float>, ptr %m_linearVelocity, align 4
  %8 = fadd <2 x float> %6, %7
  store <2 x float> %8, ptr %m_linearVelocity, align 4
  %arrayidx12.i = getelementptr inbounds i8, ptr %this, i64 428
  %9 = load float, ptr %arrayidx12.i, align 4
  %add13.i = fadd float %mul8.i, %9
  store float %add13.i, ptr %arrayidx12.i, align 4
  %m_invInertiaTensorWorld = getelementptr inbounds i8, ptr %this, i64 372
  %m_totalTorque = getelementptr inbounds i8, ptr %this, i64 536
  %10 = load <4 x float>, ptr %m_invInertiaTensorWorld, align 4
  %11 = shufflevector <4 x float> %10, <4 x float> poison, <2 x i32> <i32 0, i32 poison>
  %12 = load float, ptr %m_totalTorque, align 8
  %arrayidx5.i.i = getelementptr inbounds i8, ptr %this, i64 376
  %13 = load <4 x float>, ptr %arrayidx5.i.i, align 8
  %14 = shufflevector <4 x float> %13, <4 x float> poison, <2 x i32> <i32 0, i32 poison>
  %arrayidx7.i.i = getelementptr inbounds i8, ptr %this, i64 540
  %15 = load float, ptr %arrayidx7.i.i, align 4
  %arrayidx10.i.i = getelementptr inbounds i8, ptr %this, i64 380
  %16 = load <4 x float>, ptr %arrayidx10.i.i, align 4
  %17 = shufflevector <4 x float> %16, <4 x float> poison, <2 x i32> <i32 0, i32 poison>
  %arrayidx12.i.i = getelementptr inbounds i8, ptr %this, i64 544
  %18 = load float, ptr %arrayidx12.i.i, align 8
  %arrayidx.i.i = getelementptr inbounds i8, ptr %this, i64 388
  %19 = load float, ptr %arrayidx.i.i, align 4
  %arrayidx5.i5.i = getelementptr inbounds i8, ptr %this, i64 392
  %20 = load float, ptr %arrayidx5.i5.i, align 8
  %arrayidx10.i8.i = getelementptr inbounds i8, ptr %this, i64 396
  %21 = load float, ptr %arrayidx10.i8.i, align 4
  %arrayidx.i10.i = getelementptr inbounds i8, ptr %this, i64 404
  %22 = load float, ptr %arrayidx.i10.i, align 4
  %arrayidx5.i11.i = getelementptr inbounds i8, ptr %this, i64 408
  %23 = load float, ptr %arrayidx5.i11.i, align 8
  %mul8.i13.i = fmul float %15, %23
  %24 = tail call float @llvm.fmuladd.f32(float %22, float %12, float %mul8.i13.i)
  %arrayidx10.i14.i = getelementptr inbounds i8, ptr %this, i64 412
  %25 = load float, ptr %arrayidx10.i14.i, align 4
  %26 = tail call noundef float @llvm.fmuladd.f32(float %25, float %18, float %24)
  %mul8.i12 = fmul float %26, %step
  %m_angularVelocity = getelementptr inbounds i8, ptr %this, i64 436
  %27 = insertelement <2 x float> %14, float %15, i64 1
  %28 = insertelement <2 x float> poison, float %15, i64 0
  %29 = insertelement <2 x float> %28, float %20, i64 1
  %30 = fmul <2 x float> %27, %29
  %31 = insertelement <2 x float> %11, float %19, i64 1
  %32 = insertelement <2 x float> poison, float %12, i64 0
  %33 = shufflevector <2 x float> %32, <2 x float> poison, <2 x i32> zeroinitializer
  %34 = tail call <2 x float> @llvm.fmuladd.v2f32(<2 x float> %31, <2 x float> %33, <2 x float> %30)
  %35 = insertelement <2 x float> %17, float %21, i64 1
  %36 = insertelement <2 x float> poison, float %18, i64 0
  %37 = shufflevector <2 x float> %36, <2 x float> poison, <2 x i32> zeroinitializer
  %38 = tail call <2 x float> @llvm.fmuladd.v2f32(<2 x float> %35, <2 x float> %37, <2 x float> %34)
  %39 = insertelement <2 x float> poison, float %step, i64 0
  %40 = shufflevector <2 x float> %39, <2 x float> poison, <2 x i32> zeroinitializer
  %41 = fmul <2 x float> %38, %40
  %42 = load <2 x float>, ptr %m_angularVelocity, align 4
  %43 = fadd <2 x float> %41, %42
  store <2 x float> %43, ptr %m_angularVelocity, align 4
  %arrayidx12.i23 = getelementptr inbounds i8, ptr %this, i64 444
  %44 = load float, ptr %arrayidx12.i23, align 4
  %add13.i24 = fadd float %mul8.i12, %44
  store float %add13.i24, ptr %arrayidx12.i23, align 4
  %45 = fmul <2 x float> %43, %43
  %mul8.i.i.i = extractelement <2 x float> %45, i64 1
  %46 = extractelement <2 x float> %43, i64 0
  %47 = tail call float @llvm.fmuladd.f32(float %46, float %46, float %mul8.i.i.i)
  %48 = tail call noundef float @llvm.fmuladd.f32(float %add13.i24, float %add13.i24, float %47)
  %sqrt.i = tail call noundef float @llvm.sqrt.f32(float %48)
  %mul14 = fmul float %sqrt.i, %step
  %cmp = fcmp ogt float %mul14, 0x3FF921FB60000000
  br i1 %cmp, label %if.then15, label %if.end20

if.then15:                                        ; preds = %if.end
  %div = fdiv float 0x3FF921FB60000000, %step
  %div17 = fdiv float %div, %sqrt.i
  %49 = insertelement <2 x float> poison, float %div17, i64 0
  %50 = shufflevector <2 x float> %49, <2 x float> poison, <2 x i32> zeroinitializer
  %51 = fmul <2 x float> %43, %50
  store <2 x float> %51, ptr %m_angularVelocity, align 4
  %mul7.i = fmul float %add13.i24, %div17
  store float %mul7.i, ptr %arrayidx12.i23, align 4
  br label %if.end20

if.end20:                                         ; preds = %entry, %if.then15, %if.end
  ret void
}